target datalayout = "e-m:e-p270:32:32-p271:32:32-p272:64:64-i64:64-i128:128-f80:128-n8:16:32:64-S128"
target triple = "x86_64-pc-linux-gnu"

%"class.clang::QualType" = type { %"class.llvm::PointerIntPair" }
%"class.llvm::PointerIntPair" = type { %"struct.llvm::detail::PunnedPointer" }
%"struct.llvm::detail::PunnedPointer" = type { [8 x i8] }
%"class.clang::SourceLocation" = type { i32 }
%"class.llvm::PointerIntPair.48" = type { %"struct.llvm::detail::PunnedPointer.49" }
%"struct.llvm::detail::PunnedPointer.49" = type { [8 x i8] }
%"class.clang::CharUnits" = type { i64 }
%"class.clang::CodeGen::Address" = type { %"class.llvm::PointerIntPair.48", ptr, %"class.clang::CharUnits", %"class.clang::CodeGen::CGPointerAuthInfo", ptr }
%"class.clang::CodeGen::CGPointerAuthInfo" = type { i8, ptr }
%"class.clang::Expr" = type { %"class.clang::ValueStmt", %"class.clang::QualType" }
%"class.clang::ValueStmt" = type { %"class.clang::Stmt" }
%"class.clang::Stmt" = type { %union.anon.198 }
%union.anon.198 = type { %"class.clang::Stmt::PseudoObjectExprBitfields" }
%"class.clang::Stmt::PseudoObjectExprBitfields" = type { i64 }
%"class.(anonymous namespace)::ScalarExprEmitter" = type { ptr, ptr, i8, ptr }
%"class.clang::CodeGen::LValue" = type { i32, %union.anon.203, %union.anon.204, %"class.clang::QualType", %"class.clang::Qualifiers", i8, %"class.clang::CodeGen::LValueBaseInfo", %"struct.clang::CodeGen::TBAAAccessInfo", ptr }
%union.anon.203 = type { %"class.clang::CodeGen::Address" }
%union.anon.204 = type { ptr }
%"class.clang::Qualifiers" = type { i64 }
%"class.clang::CodeGen::LValueBaseInfo" = type { i32 }
%"struct.clang::CodeGen::TBAAAccessInfo" = type { i32, ptr, ptr, i64, i64 }
%"class.clang::CodeGen::RValue" = type <{ %union.anon.903, i8, [7 x i8] }>
%union.anon.903 = type { %"class.clang::CodeGen::Address" }
%"class.clang::Stmt::ExprBitfields" = type <{ i8, i16, i8 }>
%struct.anon.904 = type { ptr, ptr }
%"class.clang::OpaqueValueExpr" = type { %"class.clang::Expr", ptr }
%"class.clang::Stmt::OpaqueValueExprBitfields" = type { i32, %"class.clang::SourceLocation" }

; Function Attrs: mustprogress nounwind uwtable
define linkonce_odr hidden i32 @_ZNK5clang15OpaqueValueExpr11getLocationEv(ptr noundef nonnull align 8 dereferenceable(24) %0) #0 comdat align 2 {
  %2 = alloca %"class.clang::SourceLocation", align 4
  %3 = alloca ptr, align 8
  store ptr %0, ptr %3, align 8
  %4 = load ptr, ptr %3, align 8
  %5 = getelementptr inbounds nuw %"class.clang::Stmt", ptr %4, i32 0, i32 0
  %6 = getelementptr inbounds nuw %"class.clang::Stmt::OpaqueValueExprBitfields", ptr %5, i32 0, i32 1
  call void @llvm.memcpy.p0.p0.i64(ptr align 4 %2, ptr align 4 %6, i64 4, i1 false)
  %7 = getelementptr inbounds nuw %"class.clang::SourceLocation", ptr %2, i32 0, i32 0
  %8 = load i32, ptr %7, align 4
  ret i32 %8
}

; Function Attrs: mustprogress nounwind uwtable
define linkonce_odr hidden noundef i32 @_ZNK5clang4Expr12getValueKindEv(ptr noundef nonnull align 8 dereferenceable(16) %0) #0 comdat align 2 {
  %2 = alloca ptr, align 8
  store ptr %0, ptr %2, align 8
  %3 = load ptr, ptr %2, align 8
  %4 = getelementptr inbounds nuw %"class.clang::Stmt", ptr %3, i32 0, i32 0
  %5 = getelementptr inbounds nuw %"class.clang::Stmt::ExprBitfields", ptr %4, i32 0, i32 1
  %6 = load i16, ptr %5, align 1
  %7 = and i16 %6, 3
  %8 = zext i16 %7 to i32
  ret i32 %8
}

; Function Attrs: mustprogress nounwind uwtable
define linkonce_odr hidden noundef ptr @_ZNK5clang7CodeGen6RValue12getScalarValEv(ptr noundef nonnull align 8 dereferenceable(49) %0) #0 comdat align 2 {
  %2 = alloca ptr, align 8
  store ptr %0, ptr %2, align 8
  %3 = load ptr, ptr %2, align 8
  %4 = getelementptr inbounds nuw %"class.clang::CodeGen::RValue", ptr %3, i32 0, i32 0
  %5 = getelementptr inbounds nuw %struct.anon.904, ptr %4, i32 0, i32 0
  %6 = load ptr, ptr %5, align 8
  ret ptr %6
}

; Function Attrs: mustprogress nounwind uwtable
define internal noundef ptr @_ZN12_GLOBAL__N_117ScalarExprEmitter16EmitLoadOfLValueEN5clang7CodeGen6LValueENS1_14SourceLocationE(ptr noundef nonnull align 8 dereferenceable(32) %0, ptr noundef byval(%"class.clang::CodeGen::LValue") align 8 %1, i32 %2) #0 align 2 {
  %4 = alloca %"class.clang::SourceLocation", align 4
  %5 = alloca ptr, align 8
  %6 = alloca %"class.clang::CodeGen::RValue", align 8
  %7 = alloca %"class.clang::CodeGen::LValue", align 8
  %8 = alloca %"class.clang::SourceLocation", align 4
  %9 = getelementptr inbounds nuw %"class.clang::SourceLocation", ptr %4, i32 0, i32 0
  store i32 %2, ptr %9, align 4
  store ptr %0, ptr %5, align 8
  %10 = load ptr, ptr %5, align 8
  %11 = getelementptr inbounds nuw %"class.(anonymous namespace)::ScalarExprEmitter", ptr %10, i32 0, i32 0
  %12 = load ptr, ptr %11, align 8
  call void @llvm.memcpy.p0.p0.i64(ptr align 8 %7, ptr align 8 %1, i64 136, i1 false)
  call void @llvm.memcpy.p0.p0.i64(ptr align 4 %8, ptr align 4 %4, i64 4, i1 false)
  %13 = getelementptr inbounds nuw %"class.clang::SourceLocation", ptr %8, i32 0, i32 0
  %14 = load i32, ptr %13, align 4
  call void @_ZN5clang7CodeGen15CodeGenFunction16EmitLoadOfLValueENS0_6LValueENS_14SourceLocationE(ptr dead_on_unwind writable sret(%"class.clang::CodeGen::RValue") align 8 %6, ptr noundef nonnull align 8 dereferenceable(6488) %12, ptr noundef byval(%"class.clang::CodeGen::LValue") align 8 %7, i32 %14)
  %15 = call noundef ptr @_ZNK5clang7CodeGen6RValue12getScalarValEv(ptr noundef nonnull align 8 dereferenceable(49) %6)
  ret ptr %15
}

; Function Attrs: mustprogress nounwind willreturn memory(read) uwtable
define linkonce_odr hidden i32 @_ZNK5clang15OpaqueValueExpr10getExprLocEv(ptr noundef nonnull align 8 dereferenceable(24) %0) #8 comdat align 2 {
  %2 = alloca %"class.clang::SourceLocation", align 4
  %3 = alloca ptr, align 8
  store ptr %0, ptr %3, align 8
  %4 = load ptr, ptr %3, align 8
  %5 = getelementptr inbounds nuw %"class.clang::OpaqueValueExpr", ptr %4, i32 0, i32 1
  %6 = load ptr, ptr %5, align 8
  %7 = icmp ne ptr %6, null
  br i1 %7, label %8, label %13

8:                                                ; preds = %1
  %9 = getelementptr inbounds nuw %"class.clang::OpaqueValueExpr", ptr %4, i32 0, i32 1
  %10 = load ptr, ptr %9, align 8
  %11 = call i32 @_ZNK5clang4Expr10getExprLocEv(ptr noundef nonnull align 8 dereferenceable(16) %10) #12
  %12 = getelementptr inbounds nuw %"class.clang::SourceLocation", ptr %2, i32 0, i32 0
  store i32 %11, ptr %12, align 4
  br label %16

13:                                               ; preds = %1
  %14 = call i32 @_ZNK5clang15OpaqueValueExpr11getLocationEv(ptr noundef nonnull align 8 dereferenceable(24) %4)
  %15 = getelementptr inbounds nuw %"class.clang::SourceLocation", ptr %2, i32 0, i32 0
  store i32 %14, ptr %15, align 4
  br label %16

16:                                               ; preds = %13, %8
  %17 = getelementptr inbounds nuw %"class.clang::SourceLocation", ptr %2, i32 0, i32 0
  %18 = load i32, ptr %17, align 4
  ret i32 %18
}

; Function Attrs: mustprogress nounwind uwtable
define linkonce_odr hidden noundef zeroext i1 @_ZNK5clang4Expr9isGLValueEv(ptr noundef nonnull align 8 dereferenceable(16) %0) #0 comdat align 2 {
  %2 = alloca ptr, align 8
  store ptr %0, ptr %2, align 8
  %3 = load ptr, ptr %2, align 8
  %4 = call noundef i32 @_ZNK5clang4Expr12getValueKindEv(ptr noundef nonnull align 8 dereferenceable(16) %3)
  %5 = icmp ne i32 %4, 0
  ret i1 %5
}

; Function Attrs: mustprogress nounwind uwtable
define internal noundef ptr @_ZN12_GLOBAL__N_117ScalarExprEmitter20VisitOpaqueValueExprEPN5clang15OpaqueValueExprE(ptr noundef nonnull align 8 dereferenceable(32) %0, ptr noundef %1) #0 align 2 {
  %3 = alloca ptr, align 8
  %4 = alloca ptr, align 8
  %5 = alloca ptr, align 8
  %6 = alloca %"class.clang::CodeGen::LValue", align 8
  %7 = alloca %"class.clang::SourceLocation", align 4
  %8 = alloca %"class.clang::CodeGen::RValue", align 8
  store ptr %0, ptr %4, align 8
  store ptr %1, ptr %5, align 8
  %9 = load ptr, ptr %4, align 8
  %10 = load ptr, ptr %5, align 8
  %11 = call noundef zeroext i1 @_ZNK5clang4Expr9isGLValueEv(ptr noundef nonnull align 8 dereferenceable(16) %10)
  br i1 %11, label %12, label %22

12:                                               ; preds = %2
  %13 = getelementptr inbounds nuw %"class.(anonymous namespace)::ScalarExprEmitter", ptr %9, i32 0, i32 0
  %14 = load ptr, ptr %13, align 8
  %15 = load ptr, ptr %5, align 8
  call void @_ZN5clang7CodeGen15CodeGenFunction30getOrCreateOpaqueLValueMappingEPKNS_15OpaqueValueExprE(ptr dead_on_unwind writable sret(%"class.clang::CodeGen::LValue") align 8 %6, ptr noundef nonnull align 8 dereferenceable(6488) %14, ptr noundef %15)
  %16 = load ptr, ptr %5, align 8
  %17 = call i32 @_ZNK5clang15OpaqueValueExpr10getExprLocEv(ptr noundef nonnull align 8 dereferenceable(24) %16) #12
  %18 = getelementptr inbounds nuw %"class.clang::SourceLocation", ptr %7, i32 0, i32 0
  store i32 %17, ptr %18, align 4
  %19 = getelementptr inbounds nuw %"class.clang::SourceLocation", ptr %7, i32 0, i32 0
  %20 = load i32, ptr %19, align 4
  %21 = call noundef ptr @_ZN12_GLOBAL__N_117ScalarExprEmitter16EmitLoadOfLValueEN5clang7CodeGen6LValueENS1_14SourceLocationE(ptr noundef nonnull align 8 dereferenceable(32) %9, ptr noundef byval(%"class.clang::CodeGen::LValue") align 8 %6, i32 %20)
  store ptr %21, ptr %3, align 8
  br label %27

22:                                               ; preds = %2
  %23 = getelementptr inbounds nuw %"class.(anonymous namespace)::ScalarExprEmitter", ptr %9, i32 0, i32 0
  %24 = load ptr, ptr %23, align 8
  %25 = load ptr, ptr %5, align 8
  call void @_ZN5clang7CodeGen15CodeGenFunction30getOrCreateOpaqueRValueMappingEPKNS_15OpaqueValueExprE(ptr dead_on_unwind writable sret(%"class.clang::CodeGen::RValue") align 8 %8, ptr noundef nonnull align 8 dereferenceable(6488) %24, ptr noundef %25)
  %26 = call noundef ptr @_ZNK5clang7CodeGen6RValue12getScalarValEv(ptr noundef nonnull align 8 dereferenceable(49) %8)
  store ptr %26, ptr %3, align 8
  br label %27

27:                                               ; preds = %22, %12
  %28 = load ptr, ptr %3, align 8
  ret ptr %28
}