; Function Attrs: mustprogress nounwind uwtable
define internal fastcc noundef ptr @_ZN12_GLOBAL__N_117ScalarExprEmitter20VisitOpaqueValueExprEPN5clang15OpaqueValueExprE(ptr noundef nonnull readonly align 8 captures(none) dereferenceable(32) %0, ptr noundef %1) unnamed_addr #0 align 2 {
  %3 = alloca %"class.clang::CodeGen::RValue", align 8
  %4 = alloca %"class.clang::CodeGen::LValue", align 8
  %5 = alloca %"class.clang::CodeGen::RValue", align 8
  %6 = getelementptr inbounds nuw i8, ptr %1, i64 1
  %7 = load i16, ptr %6, align 1
  %8 = and i16 %7, 3
  %.not = icmp eq i16 %8, 0
  %9 = load ptr, ptr %0, align 8
  br i1 %.not, label %18, label %10

10:                                               ; preds = %2
  call void @_ZN5clang7CodeGen15CodeGenFunction30getOrCreateOpaqueLValueMappingEPKNS_15OpaqueValueExprE(ptr dead_on_unwind nonnull writable sret(%"class.clang::CodeGen::LValue") align 8 %4, ptr noundef nonnull align 8 dereferenceable(6488) %9, ptr noundef nonnull %1) #19
  %11 = getelementptr inbounds nuw i8, ptr %1, i64 16
  %12 = load ptr, ptr %11, align 8
  %.not.i = icmp eq ptr %12, null
  br i1 %.not.i, label %15, label %13

13:                                               ; preds = %10
  %14 = call i32 @_ZNK5clang4Expr10getExprLocEv(ptr noundef nonnull align 8 dereferenceable(16) %12) #20
  br label %_ZNK5clang15OpaqueValueExpr10getExprLocEv.exit

15:                                               ; preds = %10
  %16 = getelementptr inbounds nuw i8, ptr %1, i64 4
  %.sroa.0.0.copyload.i.i = load i32, ptr %16, align 4
  br label %_ZNK5clang15OpaqueValueExpr10getExprLocEv.exit

_ZNK5clang15OpaqueValueExpr10getExprLocEv.exit:   ; preds = %13, %15
  %.sroa.0.0.i = phi i32 [ %14, %13 ], [ %.sroa.0.0.copyload.i.i, %15 ]
  %.val = load ptr, ptr %0, align 8
  call void @llvm.lifetime.start.p0(i64 56, ptr nonnull %3)
  call void @_ZN5clang7CodeGen15CodeGenFunction16EmitLoadOfLValueENS0_6LValueENS_14SourceLocationE(ptr dead_on_unwind nonnull writable sret(%"class.clang::CodeGen::RValue") align 8 %3, ptr noundef nonnull align 8 dereferenceable(6488) %.val, ptr noundef nonnull byval(%"class.clang::CodeGen::LValue") align 8 %4, i32 %.sroa.0.0.i) #19
  %17 = load ptr, ptr %3, align 8
  call void @llvm.lifetime.end.p0(i64 56, ptr nonnull %3)
  br label %20

18:                                               ; preds = %2
  call void @_ZN5clang7CodeGen15CodeGenFunction30getOrCreateOpaqueRValueMappingEPKNS_15OpaqueValueExprE(ptr dead_on_unwind nonnull writable sret(%"class.clang::CodeGen::RValue") align 8 %5, ptr noundef nonnull align 8 dereferenceable(6488) %9, ptr noundef nonnull %1) #19
  %19 = load ptr, ptr %5, align 8
  br label %20

20:                                               ; preds = %18, %_ZNK5clang15OpaqueValueExpr10getExprLocEv.exit
  %.0 = phi ptr [ %17, %_ZNK5clang15OpaqueValueExpr10getExprLocEv.exit ], [ %19, %18 ]
  ret ptr %.0
}